target datalayout = "e-m:e-p270:32:32-p271:32:32-p272:64:64-i64:64-i128:128-f80:128-n8:16:32:64-S128"
target triple = "x86_64-pc-linux-gnu"

%struct.PortControl = type { ptr, i32, ptr, i32 }

; Function Attrs: nounwind uwtable
define internal float @getFakeBalance(ptr noundef %0) #0 {
  %2 = alloca float, align 4
  %3 = alloca ptr, align 8
  %4 = alloca float, align 4
  %5 = alloca float, align 4
  store ptr %0, ptr %3, align 8
  %6 = load ptr, ptr %3, align 8
  %7 = call float @getRealVolume(ptr noundef %6, i32 noundef 0)
  store float %7, ptr %4, align 4
  %8 = load ptr, ptr %3, align 8
  %9 = call float @getRealVolume(ptr noundef %8, i32 noundef 1)
  store float %9, ptr %5, align 4
  %10 = load float, ptr %4, align 4
  %11 = load float, ptr %5, align 4
  %12 = fcmp ogt float %10, %11
  br i1 %12, label %13, label %18

13:                                               ; preds = %1
  %14 = load float, ptr %5, align 4
  %15 = load float, ptr %4, align 4
  %16 = fdiv float %14, %15
  %17 = fadd float -1.000000e+00, %16
  store float %17, ptr %2, align 4
  br label %29

18:                                               ; preds = %1
  %19 = load float, ptr %5, align 4
  %20 = load float, ptr %4, align 4
  %21 = fcmp ogt float %19, %20
  br i1 %21, label %22, label %27

22:                                               ; preds = %18
  %23 = load float, ptr %4, align 4
  %24 = load float, ptr %5, align 4
  %25 = fdiv float %23, %24
  %26 = fsub float 1.000000e+00, %25
  store float %26, ptr %2, align 4
  br label %29

27:                                               ; preds = %18
  br label %28

28:                                               ; preds = %27
  store float 0.000000e+00, ptr %2, align 4
  br label %29

29:                                               ; preds = %28, %22, %13
  %30 = load float, ptr %2, align 4
  ret float %30
}

; Function Attrs: nounwind uwtable
define internal float @getFakeVolume(ptr noundef %0) #0 {
  %2 = alloca ptr, align 8
  %3 = alloca float, align 4
  %4 = alloca float, align 4
  %5 = alloca float, align 4
  store ptr %0, ptr %2, align 8
  %6 = load ptr, ptr %2, align 8
  %7 = call float @getRealVolume(ptr noundef %6, i32 noundef 0)
  store float %7, ptr %3, align 4
  %8 = load ptr, ptr %2, align 8
  %9 = call float @getRealVolume(ptr noundef %8, i32 noundef 1)
  store float %9, ptr %4, align 4
  %10 = load float, ptr %3, align 4
  %11 = load float, ptr %4, align 4
  %12 = fcmp ogt float %10, %11
  br i1 %12, label %13, label %15

13:                                               ; preds = %1
  %14 = load float, ptr %3, align 4
  br label %17

15:                                               ; preds = %1
  %16 = load float, ptr %4, align 4
  br label %17

17:                                               ; preds = %15, %13
  %18 = phi float [ %14, %13 ], [ %16, %15 ]
  store float %18, ptr %5, align 4
  %19 = load float, ptr %5, align 4
  ret float %19
}

; Function Attrs: nounwind uwtable
define hidden float @PORT_GetFloatValue(ptr noundef %0) #0 {
  %2 = alloca ptr, align 8
  %3 = alloca ptr, align 8
  %4 = alloca float, align 4
  store ptr %0, ptr %2, align 8
  %5 = load ptr, ptr %2, align 8
  store ptr %5, ptr %3, align 8
  store float 0.000000e+00, ptr %4, align 4
  %6 = load ptr, ptr %3, align 8
  %7 = icmp ne ptr %6, null
  br i1 %7, label %8, label %48

8:                                                ; preds = %1
  %9 = load ptr, ptr %3, align 8
  %10 = getelementptr inbounds %struct.PortControl, ptr %9, i32 0, i32 2
  %11 = load ptr, ptr %10, align 8
  %12 = icmp eq ptr %11, inttoptr (i64 4 to ptr)
  br i1 %12, label %13, label %30

13:                                               ; preds = %8
  %14 = load ptr, ptr %3, align 8
  %15 = getelementptr inbounds %struct.PortControl, ptr %14, i32 0, i32 3
  %16 = load i32, ptr %15, align 8
  switch i32 %16, label %23 [
    i32 32, label %17
    i32 33, label %20
  ]

17:                                               ; preds = %13
  %18 = load ptr, ptr %3, align 8
  %19 = call float @getRealVolume(ptr noundef %18, i32 noundef 0)
  store float %19, ptr %4, align 4
  br label %29

20:                                               ; preds = %13
  %21 = load ptr, ptr %3, align 8
  %22 = call float @getFakeVolume(ptr noundef %21)
  store float %22, ptr %4, align 4
  br label %29

23:                                               ; preds = %13
  %24 = load ptr, ptr %3, align 8
  %25 = load ptr, ptr %3, align 8
  %26 = getelementptr inbounds %struct.PortControl, ptr %25, i32 0, i32 3
  %27 = load i32, ptr %26, align 8
  %28 = call float @getRealVolume(ptr noundef %24, i32 noundef %27)
  store float %28, ptr %4, align 4
  br label %29

29:                                               ; preds = %23, %20, %17
  br label %47

30:                                               ; preds = %8
  %31 = load ptr, ptr %3, align 8
  %32 = getelementptr inbounds %struct.PortControl, ptr %31, i32 0, i32 2
  %33 = load ptr, ptr %32, align 8
  %34 = icmp eq ptr %33, inttoptr (i64 1 to ptr)
  br i1 %34, label %35, label %45

35:                                               ; preds = %30
  %36 = load ptr, ptr %3, align 8
  %37 = getelementptr inbounds %struct.PortControl, ptr %36, i32 0, i32 3
  %38 = load i32, ptr %37, align 8
  %39 = icmp eq i32 %38, 33
  br i1 %39, label %40, label %43

40:                                               ; preds = %35
  %41 = load ptr, ptr %3, align 8
  %42 = call float @getFakeBalance(ptr noundef %41)
  store float %42, ptr %4, align 4
  br label %44

43:                                               ; preds = %35
  br label %44

44:                                               ; preds = %43, %40
  br label %46

45:                                               ; preds = %30
  br label %46

46:                                               ; preds = %45, %44
  br label %47

47:                                               ; preds = %46, %29
  br label %48

48:                                               ; preds = %47, %1
  %49 = load float, ptr %4, align 4
  ret float %49
}