; Function Attrs: nounwind uwtable
define hidden float @PORT_GetFloatValue(ptr noundef readonly %0) local_unnamed_addr #0 {
  %.not = icmp eq ptr %0, null
  br i1 %.not, label %getFakeBalance.exit, label %2

2:                                                ; preds = %1
  %3 = getelementptr inbounds i8, ptr %0, i64 16
  %4 = load ptr, ptr %3, align 8
  %magicptr = ptrtoint ptr %4 to i64
  switch i64 %magicptr, label %getFakeBalance.exit [
    i64 4, label %5
    i64 1, label %17
  ]

5:                                                ; preds = %2
  %6 = getelementptr inbounds i8, ptr %0, i64 24
  %7 = load i32, ptr %6, align 8
  switch i32 %7, label %15 [
    i32 32, label %8
    i32 33, label %10
  ]

8:                                                ; preds = %5
  %9 = tail call float @getRealVolume(ptr noundef nonnull %0, i32 noundef 0)
  br label %getFakeBalance.exit

10:                                               ; preds = %5
  %11 = tail call float @getRealVolume(ptr noundef nonnull readonly %0, i32 noundef 0)
  %12 = tail call float @getRealVolume(ptr noundef nonnull readonly %0, i32 noundef 1)
  %13 = fcmp ogt float %11, %12
  %14 = select i1 %13, float %11, float %12
  br label %getFakeBalance.exit

15:                                               ; preds = %5
  %16 = tail call float @getRealVolume(ptr noundef nonnull %0, i32 noundef %7)
  br label %getFakeBalance.exit

17:                                               ; preds = %2
  %18 = getelementptr inbounds i8, ptr %0, i64 24
  %19 = load i32, ptr %18, align 8
  %20 = icmp eq i32 %19, 33
  br i1 %20, label %21, label %getFakeBalance.exit

21:                                               ; preds = %17
  %22 = tail call float @getRealVolume(ptr noundef nonnull readonly %0, i32 noundef 0)
  %23 = tail call float @getRealVolume(ptr noundef nonnull readonly %0, i32 noundef 1)
  %24 = fcmp ogt float %22, %23
  br i1 %24, label %25, label %28

25:                                               ; preds = %21
  %26 = fdiv float %23, %22
  %27 = fadd float %26, -1.000000e+00
  br label %getFakeBalance.exit

28:                                               ; preds = %21
  %29 = fcmp ogt float %23, %22
  br i1 %29, label %30, label %getFakeBalance.exit

30:                                               ; preds = %28
  %31 = fdiv float %22, %23
  %32 = fsub float 1.000000e+00, %31
  br label %getFakeBalance.exit

getFakeBalance.exit:                              ; preds = %30, %28, %25, %2, %15, %10, %8, %17, %1
  %.0 = phi float [ %16, %15 ], [ %14, %10 ], [ %9, %8 ], [ 0.000000e+00, %17 ], [ 0.000000e+00, %1 ], [ 0.000000e+00, %2 ], [ %27, %25 ], [ %32, %30 ], [ 0.000000e+00, %28 ]
  ret float %.0
}